target datalayout = "e-m:e-p270:32:32-p271:32:32-p272:64:64-i64:64-i128:128-f80:128-n8:16:32:64-S128"
target triple = "x86_64-pc-linux-gnu"

%struct.AVChannelLayout = type { i32, i32, %union.anon, ptr }
%union.anon = type { i64 }
%struct.AVCodecContext = type { ptr, i32, i32, ptr, i32, i32, ptr, ptr, ptr, i64, i32, i32, ptr, i32, %struct.AVRational, %struct.AVRational, %struct.AVRational, i32, i32, i32, i32, i32, %struct.AVRational, i32, i32, i32, i32, i32, i32, i32, i32, i32, i32, i32, ptr, ptr, i32, float, float, float, float, float, float, float, float, float, i32, i32, i32, i32, i32, i32, i32, i32, i32, i32, i32, i32, ptr, ptr, ptr, i32, i32, i32, i32, i32, i32, i32, i32, i32, i32, %struct.AVChannelLayout, i32, i32, i32, i32, i32, i32, i32, i32, ptr, i32, i32, i32, float, float, i32, i32, i32, i32, i32, ptr, i64, i64, float, float, i32, i32, ptr, ptr, i32, i32, i32, i32, i32, ptr, ptr, ptr, ptr, i32, i32, [8 x i64], i32, i32, i32, i32, i32, i32, i32, ptr, ptr, i32, i32, i32, i32, i32, i32, i32, i32, i32, i32, ptr, ptr, i32, i32, ptr, ptr, ptr, ptr, i32, i32, i64, i32, i32, i64, ptr, i64, ptr, i32, ptr, i32 }
%struct.AVRational = type { i32, i32 }
%struct.G722Context = type { ptr, i32, [1024 x i16], i32, [2 x %struct.G722Band], [2 x ptr], [2 x ptr], [2 x ptr], %struct.G722DSPContext }
%struct.G722Band = type { i16, i32, [2 x i8], i16, [2 x i16], [6 x i32], [6 x i16], i16, i16 }
%struct.G722DSPContext = type { ptr }

; Function Attrs: cold nounwind optsize uwtable
define internal i32 @g722_encode_close(ptr noundef %0) #0 {
  %2 = alloca ptr, align 8
  %3 = alloca ptr, align 8
  %4 = alloca i32, align 4
  store ptr %0, ptr %2, align 8, !tbaa !4
  call void @llvm.lifetime.start.p0(i64 8, ptr %3) #10
  %5 = load ptr, ptr %2, align 8, !tbaa !4
  %6 = getelementptr inbounds nuw %struct.AVCodecContext, ptr %5, i32 0, i32 6
  %7 = load ptr, ptr %6, align 8, !tbaa !9
  store ptr %7, ptr %3, align 8, !tbaa !29
  call void @llvm.lifetime.start.p0(i64 4, ptr %4) #10
  store i32 0, ptr %4, align 4, !tbaa !38
  br label %8

8:                                                ; preds = %27, %1
  %9 = load i32, ptr %4, align 4, !tbaa !38
  %10 = icmp slt i32 %9, 2
  br i1 %10, label %11, label %30

11:                                               ; preds = %8
  %12 = load ptr, ptr %3, align 8, !tbaa !29
  %13 = getelementptr inbounds nuw %struct.G722Context, ptr %12, i32 0, i32 7
  %14 = load i32, ptr %4, align 4, !tbaa !38
  %15 = sext i32 %14 to i64
  %16 = getelementptr inbounds [2 x ptr], ptr %13, i64 0, i64 %15
  call void @av_freep(ptr noundef %16)
  %17 = load ptr, ptr %3, align 8, !tbaa !29
  %18 = getelementptr inbounds nuw %struct.G722Context, ptr %17, i32 0, i32 5
  %19 = load i32, ptr %4, align 4, !tbaa !38
  %20 = sext i32 %19 to i64
  %21 = getelementptr inbounds [2 x ptr], ptr %18, i64 0, i64 %20
  call void @av_freep(ptr noundef %21)
  %22 = load ptr, ptr %3, align 8, !tbaa !29
  %23 = getelementptr inbounds nuw %struct.G722Context, ptr %22, i32 0, i32 6
  %24 = load i32, ptr %4, align 4, !tbaa !38
  %25 = sext i32 %24 to i64
  %26 = getelementptr inbounds [2 x ptr], ptr %23, i64 0, i64 %25
  call void @av_freep(ptr noundef %26)
  br label %27

27:                                               ; preds = %11
  %28 = load i32, ptr %4, align 4, !tbaa !38
  %29 = add nsw i32 %28, 1
  store i32 %29, ptr %4, align 4, !tbaa !38
  br label %8, !llvm.loop !66

30:                                               ; preds = %8
  call void @llvm.lifetime.end.p0(i64 4, ptr %4) #10
  call void @llvm.lifetime.end.p0(i64 8, ptr %3) #10
  ret i32 0
}