; Function Attrs: cold nounwind optsize uwtable
define internal noundef i32 @g722_encode_close(ptr noundef readonly captures(none) %0) #0 {
.critedge:
  %1 = getelementptr inbounds nuw i8, ptr %0, i64 32
  %2 = load ptr, ptr %1, align 8, !tbaa !4
  %3 = getelementptr inbounds nuw i8, ptr %2, i64 2208
  %4 = getelementptr inbounds nuw i8, ptr %2, i64 2176
  %5 = getelementptr inbounds nuw i8, ptr %2, i64 2192
  tail call void @av_freep(ptr noundef nonnull %3) #8
  tail call void @av_freep(ptr noundef nonnull %4) #8
  tail call void @av_freep(ptr noundef nonnull %5) #8
  %6 = getelementptr inbounds nuw i8, ptr %2, i64 2216
  tail call void @av_freep(ptr noundef nonnull %6) #8
  %7 = getelementptr inbounds nuw i8, ptr %2, i64 2184
  tail call void @av_freep(ptr noundef nonnull %7) #8
  %8 = getelementptr inbounds nuw i8, ptr %2, i64 2200
  tail call void @av_freep(ptr noundef nonnull %8) #8
  ret i32 0
}